target datalayout = "e-m:e-p270:32:32-p271:32:32-p272:64:64-i64:64-i128:128-f80:128-n8:16:32:64-S128"
target triple = "x86_64-pc-linux-gnu"

%"class.OpenColorIO_v2_5dev::CDLTransformImpl" = type { %"class.OpenColorIO_v2_5dev::CDLTransform", %"class.std::__cxx11::basic_string", %"class.OpenColorIO_v2_5dev::CDLOpData" }
%"class.OpenColorIO_v2_5dev::CDLTransform" = type { %"class.OpenColorIO_v2_5dev::Transform" }
%"class.OpenColorIO_v2_5dev::Transform" = type { ptr }
%"class.std::__cxx11::basic_string" = type { %"struct.std::__cxx11::basic_string<char>::_Alloc_hider", i64, %union.anon }
%"struct.std::__cxx11::basic_string<char>::_Alloc_hider" = type { ptr }
%union.anon = type { i64, [8 x i8] }
%"class.OpenColorIO_v2_5dev::CDLOpData" = type { %"class.OpenColorIO_v2_5dev::OpData", i32, %"struct.OpenColorIO_v2_5dev::CDLOpData::ChannelParams", %"struct.OpenColorIO_v2_5dev::CDLOpData::ChannelParams", %"struct.OpenColorIO_v2_5dev::CDLOpData::ChannelParams", double }
%"class.OpenColorIO_v2_5dev::OpData" = type { ptr, %"class.std::mutex", %"class.OpenColorIO_v2_5dev::FormatMetadataImpl" }
%"class.std::mutex" = type { %"class.std::__mutex_base" }
%"class.std::__mutex_base" = type { %union.pthread_mutex_t }
%union.pthread_mutex_t = type { %struct.__pthread_mutex_s }
%struct.__pthread_mutex_s = type { i32, i32, i32, i32, i32, i16, i16, %struct.__pthread_internal_list }
%struct.__pthread_internal_list = type { ptr, ptr }
%"class.OpenColorIO_v2_5dev::FormatMetadataImpl" = type { %"class.OpenColorIO_v2_5dev::FormatMetadata", %"class.std::__cxx11::basic_string", %"class.std::__cxx11::basic_string", %"class.std::vector", %"class.std::vector.3" }
%"class.OpenColorIO_v2_5dev::FormatMetadata" = type { ptr }
%"class.std::vector" = type { %"struct.std::_Vector_base" }
%"struct.std::_Vector_base" = type { %"struct.std::_Vector_base<std::pair<std::__cxx11::basic_string<char>, std::__cxx11::basic_string<char>>, std::allocator<std::pair<std::__cxx11::basic_string<char>, std::__cxx11::basic_string<char>>>>::_Vector_impl" }
%"struct.std::_Vector_base<std::pair<std::__cxx11::basic_string<char>, std::__cxx11::basic_string<char>>, std::allocator<std::pair<std::__cxx11::basic_string<char>, std::__cxx11::basic_string<char>>>>::_Vector_impl" = type { %"struct.std::_Vector_base<std::pair<std::__cxx11::basic_string<char>, std::__cxx11::basic_string<char>>, std::allocator<std::pair<std::__cxx11::basic_string<char>, std::__cxx11::basic_string<char>>>>::_Vector_impl_data" }
%"struct.std::_Vector_base<std::pair<std::__cxx11::basic_string<char>, std::__cxx11::basic_string<char>>, std::allocator<std::pair<std::__cxx11::basic_string<char>, std::__cxx11::basic_string<char>>>>::_Vector_impl_data" = type { ptr, ptr, ptr }
%"class.std::vector.3" = type { %"struct.std::_Vector_base.4" }
%"struct.std::_Vector_base.4" = type { %"struct.std::_Vector_base<OpenColorIO_v2_5dev::FormatMetadataImpl, std::allocator<OpenColorIO_v2_5dev::FormatMetadataImpl>>::_Vector_impl" }
%"struct.std::_Vector_base<OpenColorIO_v2_5dev::FormatMetadataImpl, std::allocator<OpenColorIO_v2_5dev::FormatMetadataImpl>>::_Vector_impl" = type { %"struct.std::_Vector_base<OpenColorIO_v2_5dev::FormatMetadataImpl, std::allocator<OpenColorIO_v2_5dev::FormatMetadataImpl>>::_Vector_impl_data" }
%"struct.std::_Vector_base<OpenColorIO_v2_5dev::FormatMetadataImpl, std::allocator<OpenColorIO_v2_5dev::FormatMetadataImpl>>::_Vector_impl_data" = type { ptr, ptr, ptr }
%"struct.OpenColorIO_v2_5dev::CDLOpData::ChannelParams" = type { [3 x double] }

@_ZTIN19OpenColorIO_v2_5dev9ExceptionE = external constant ptr
@.str.11 = private unnamed_addr constant [38 x i8] c"CDLTransform: Invalid 'power' pointer\00", align 1

; Function Attrs: mustprogress nounwind uwtable
define linkonce_odr hidden void @_ZN19OpenColorIO_v2_5dev9CDLOpData13ChannelParams6setRGBEddd(ptr noundef nonnull align 8 dereferenceable(24) %0, double noundef %1, double noundef %2, double noundef %3) #8 comdat align 2 {
  %5 = alloca ptr, align 8
  %6 = alloca double, align 8
  %7 = alloca double, align 8
  %8 = alloca double, align 8
  store ptr %0, ptr %5, align 8, !tbaa !99
  store double %1, ptr %6, align 8, !tbaa !98
  store double %2, ptr %7, align 8, !tbaa !98
  store double %3, ptr %8, align 8, !tbaa !98
  %9 = load ptr, ptr %5, align 8
  %10 = load double, ptr %6, align 8, !tbaa !98
  %11 = getelementptr inbounds nuw %"struct.OpenColorIO_v2_5dev::CDLOpData::ChannelParams", ptr %9, i32 0, i32 0
  %12 = getelementptr inbounds [3 x double], ptr %11, i64 0, i64 0
  store double %10, ptr %12, align 8, !tbaa !98
  %13 = load double, ptr %7, align 8, !tbaa !98
  %14 = getelementptr inbounds nuw %"struct.OpenColorIO_v2_5dev::CDLOpData::ChannelParams", ptr %9, i32 0, i32 0
  %15 = getelementptr inbounds [3 x double], ptr %14, i64 0, i64 1
  store double %13, ptr %15, align 8, !tbaa !98
  %16 = load double, ptr %8, align 8, !tbaa !98
  %17 = getelementptr inbounds nuw %"struct.OpenColorIO_v2_5dev::CDLOpData::ChannelParams", ptr %9, i32 0, i32 0
  %18 = getelementptr inbounds [3 x double], ptr %17, i64 0, i64 2
  store double %16, ptr %18, align 8, !tbaa !98
  ret void
}

; Function Attrs: mustprogress uwtable
define linkonce_odr hidden void @_ZN19OpenColorIO_v2_5dev9CDLOpData13ChannelParamsC2Eddd(ptr noundef nonnull align 8 dereferenceable(24) %0, double noundef %1, double noundef %2, double noundef %3) unnamed_addr #4 comdat align 2 {
  %5 = alloca ptr, align 8
  %6 = alloca double, align 8
  %7 = alloca double, align 8
  %8 = alloca double, align 8
  store ptr %0, ptr %5, align 8, !tbaa !99
  store double %1, ptr %6, align 8, !tbaa !98
  store double %2, ptr %7, align 8, !tbaa !98
  store double %3, ptr %8, align 8, !tbaa !98
  %9 = load ptr, ptr %5, align 8
  %10 = load double, ptr %6, align 8, !tbaa !98
  %11 = load double, ptr %7, align 8, !tbaa !98
  %12 = load double, ptr %8, align 8, !tbaa !98
  call void @_ZN19OpenColorIO_v2_5dev9CDLOpData13ChannelParams6setRGBEddd(ptr noundef nonnull align 8 dereferenceable(24) %9, double noundef %10, double noundef %11, double noundef %12)
  ret void
}

; Function Attrs: mustprogress nounwind uwtable
define linkonce_odr hidden noundef nonnull align 8 dereferenceable(256) ptr @_ZN19OpenColorIO_v2_5dev16CDLTransformImpl4dataEv(ptr noundef nonnull align 8 dereferenceable(296) %0) #8 comdat align 2 {
  %2 = alloca ptr, align 8
  store ptr %0, ptr %2, align 8, !tbaa !3
  %3 = load ptr, ptr %2, align 8
  %4 = getelementptr inbounds nuw %"class.OpenColorIO_v2_5dev::CDLTransformImpl", ptr %3, i32 0, i32 2
  ret ptr %4
}

; Function Attrs: mustprogress uwtable
define hidden void @_ZN19OpenColorIO_v2_5dev16CDLTransformImpl8setPowerEPKd(ptr noundef nonnull align 8 dereferenceable(296) %0, ptr noundef %1) unnamed_addr #4 align 2 personality ptr @__gxx_personality_v0 {
  %3 = alloca ptr, align 8
  %4 = alloca ptr, align 8
  %5 = alloca ptr, align 8
  %6 = alloca i32, align 4
  %7 = alloca %"struct.OpenColorIO_v2_5dev::CDLOpData::ChannelParams", align 8
  store ptr %0, ptr %3, align 8, !tbaa !3
  store ptr %1, ptr %4, align 8, !tbaa !96
  %8 = load ptr, ptr %3, align 8
  %9 = load ptr, ptr %4, align 8, !tbaa !96
  %10 = icmp ne ptr %9, null
  br i1 %10, label %18, label %11

11:                                               ; preds = %2
  %12 = call ptr @__cxa_allocate_exception(i64 16) #3
  invoke void @_ZN19OpenColorIO_v2_5dev9ExceptionC1EPKc(ptr noundef nonnull align 8 dereferenceable(16) %12, ptr noundef @.str.11)
          to label %13 unwind label %14

13:                                               ; preds = %11
  call void @__cxa_throw(ptr %12, ptr @_ZTIN19OpenColorIO_v2_5dev9ExceptionE, ptr @_ZN19OpenColorIO_v2_5dev9ExceptionD1Ev) #24
  unreachable

14:                                               ; preds = %11
  %15 = landingpad { ptr, i32 }
          cleanup
  %16 = extractvalue { ptr, i32 } %15, 0
  store ptr %16, ptr %5, align 8
  %17 = extractvalue { ptr, i32 } %15, 1
  store i32 %17, ptr %6, align 4
  call void @__cxa_free_exception(ptr %12) #3
  br label %29

18:                                               ; preds = %2
  %19 = call noundef nonnull align 8 dereferenceable(256) ptr @_ZN19OpenColorIO_v2_5dev16CDLTransformImpl4dataEv(ptr noundef nonnull align 8 dereferenceable(296) %8) #3
  call void @llvm.lifetime.start.p0(i64 24, ptr %7) #3
  %20 = load ptr, ptr %4, align 8, !tbaa !96
  %21 = getelementptr inbounds double, ptr %20, i64 0
  %22 = load double, ptr %21, align 8, !tbaa !98
  %23 = load ptr, ptr %4, align 8, !tbaa !96
  %24 = getelementptr inbounds double, ptr %23, i64 1
  %25 = load double, ptr %24, align 8, !tbaa !98
  %26 = load ptr, ptr %4, align 8, !tbaa !96
  %27 = getelementptr inbounds double, ptr %26, i64 2
  %28 = load double, ptr %27, align 8, !tbaa !98
  call void @_ZN19OpenColorIO_v2_5dev9CDLOpData13ChannelParamsC2Eddd(ptr noundef nonnull align 8 dereferenceable(24) %7, double noundef %22, double noundef %25, double noundef %28)
  call void @_ZN19OpenColorIO_v2_5dev9CDLOpData14setPowerParamsERKNS0_13ChannelParamsE(ptr noundef nonnull align 8 dereferenceable(256) %19, ptr noundef nonnull align 8 dereferenceable(24) %7)
  call void @llvm.lifetime.end.p0(i64 24, ptr %7) #3
  ret void

29:                                               ; preds = %14
  %30 = load ptr, ptr %5, align 8
  %31 = load i32, ptr %6, align 4
  %32 = insertvalue { ptr, i32 } poison, ptr %30, 0
  %33 = insertvalue { ptr, i32 } %32, i32 %31, 1
  resume { ptr, i32 } %33
}